(dp0
S'username'
p1
S'lostash'
p2
sS'max_photo_sets'
p3
I100
sS'photosets'
p4
(lp5
(dp6
S'description'
p7
S''
p8
sS'title'
p9
S'Misc'
p10
sS'farm'
p11
S'4'
p12
sS'primary'
p13
S'12177810535'
p14
sS'server'
p15
S'3671'
p16
sS'photos'
p17
(lp18
(dp19
g9
S'St Ives 31'
p20
sS'file_name'
p21
S'../../content/flickr/lostash/12177810535_53d102b4d9.jpg'
p22
sS'tags'
p23
S'autumn holiday beach boats cornwall surfing vision:beach=0704 vision:outdoor=099 vision:clouds=0821 vision:sky=0967 vision:ocean=0771 vision:car=0551'
p24
sS'url_m'
p25
S'http://farm4.staticflickr.com/3671/12177810535_53d102b4d9.jpg'
p26
sg15
S'3671'
p27
sS'dateupload'
p28
S'1390855577'
p29
sS'datetaken'
p30
S'2013-09-16 11:52:55'
p31
sS'secret'
p32
S'53d102b4d9'
p33
sS'longitude'
p34
S'0'
p35
sS'latitude'
p36
S'0'
p37
sS'isprimary'
p38
S'1'
p39
sS'id'
p40
S'12177810535'
p41
sa(dp42
g9
S'Newquay 48'
p43
sg21
S'../../content/flickr/lostash/12177834895_693442a0b3.jpg'
p44
sg23
S'autumn holiday beach boats cornwall surfing vision:sunset=0893 vision:sky=0947 vision:outdoor=0514 vision:ocean=088 vision:clouds=09'
p45
sg25
S'http://farm4.staticflickr.com/3833/12177834895_693442a0b3.jpg'
p46
sg15
S'3833'
p47
sg28
S'1390855576'
p48
sg30
S'2013-09-17 19:21:40'
p49
sg32
S'693442a0b3'
p50
sg34
S'0'
p51
sg36
S'0'
p52
sg38
S'0'
p53
sg40
S'12177834895'
p54
sa(dp55
g9
S'Bench'
p56
sg21
S'../../content/flickr/lostash/12195627346_db25ea40a4.jpg'
p57
sg23
S'old bench moss seat rotten decaying d3200 vision:mountain=0851 vision:outdoor=0957 vision:sky=0528 vision:plant=0867'
p58
sg25
S'http://farm6.staticflickr.com/5498/12195627346_db25ea40a4.jpg'
p59
sg15
S'5498'
p60
sg28
S'1390943521'
p61
sg30
S'2014-01-19 13:02:43'
p62
sg32
S'db25ea40a4'
p63
sg34
S'0'
p64
sg36
S'0'
p65
sg38
S'0'
p66
sg40
S'12195627346'
p67
sa(dp68
g9
S'Crackers 2'
p69
sg21
S'../../content/flickr/lostash/12195414064_155fc0166e.jpg'
p70
sg23
S'macro walnut nuts crackers d3200 vision:dark=0556'
p71
sg25
S'http://farm3.staticflickr.com/2821/12195414064_155fc0166e.jpg'
p72
sg15
S'2821'
p73
sg28
S'1390943522'
p74
sg30
S'2014-01-20 21:54:28'
p75
sg32
S'155fc0166e'
p76
sg34
S'0'
p77
sg36
S'0'
p78
sg38
S'0'
p79
sg40
S'12195414064'
p80
sa(dp81
g9
S'Pick'
p82
sg21
S'../../content/flickr/lostash/12195402034_9757d3c656.jpg'
p83
sg23
S'wood macro sharp toothpicks points d3200 vision:food=0523 vision:plant=0672'
p84
sg25
S'http://farm6.staticflickr.com/5516/12195402034_9757d3c656.jpg'
p85
sg15
S'5516'
p86
sg28
S'1390943523'
p87
sg30
S'2014-01-20 22:19:14'
p88
sg32
S'9757d3c656'
p89
sg34
S'0'
p90
sg36
S'0'
p91
sg38
S'0'
p92
sg40
S'12195402034'
p93
sa(dp94
g9
S'Reel'
p95
sg21
S'../../content/flickr/lostash/12195219473_9ab03c5ecc.jpg'
p96
sg23
S'macro thread blackwhite metallic bobbin reel d3200 vision:mountain=0732 vision:outdoor=0804'
p97
sg25
S'http://farm3.staticflickr.com/2846/12195219473_9ab03c5ecc.jpg'
p98
sg15
S'2846'
p99
sg28
S'1390943524'
p100
sg30
S'2014-01-20 22:06:31'
p101
sg32
S'9ab03c5ecc'
p102
sg34
S'0'
p103
sg36
S'0'
p104
sg38
S'0'
p105
sg40
S'12195219473'
p106
sa(dp107
g9
S'LA 3'
p108
sg21
S'../../content/flickr/lostash/12194987355_2bf4c39deb.jpg'
p109
sg23
S'people woman girl person friend laughter d3200 vision:outdoor=064'
p110
sg25
S'http://farm6.staticflickr.com/5494/12194987355_2bf4c39deb.jpg'
p111
sg15
S'5494'
p112
sg28
S'1390943525'
p113
sg30
S'2014-01-25 19:29:13'
p114
sg32
S'2bf4c39deb'
p115
sg34
S'0'
p116
sg36
S'0'
p117
sg38
S'0'
p118
sg40
S'12194987355'
p119
sasg32
S'53d102b4d9'
p120
sg40
S'72157640227403615'
p121
sa(dp122
g7
g8
sg9
S'Black & White'
p123
sg11
S'8'
p124
sg13
S'12176742355'
p125
sg15
S'7325'
p126
sg17
(lp127
(dp128
g9
S'LBG A104'
p129
sg21
S'../../content/flickr/lostash/12176742355_b360319d43.jpg'
p130
sg23
S'life autumn plants macro nature colours vision:dark=0749 vision:outdoor=0882'
p131
sg25
S'http://farm8.staticflickr.com/7325/12176742355_b360319d43.jpg'
p132
sg15
S'7325'
p133
sg28
S'1390851896'
p134
sg30
S'2013-10-06 11:13:35'
p135
sg32
S'b360319d43'
p136
sg34
S'-1.091373'
p137
sg36
S'52.604566'
p138
sg38
S'1'
p139
sg40
S'12176742355'
p140
sa(dp141
g9
S'Fungi 2013 - 345'
p142
sg21
S'../../content/flickr/lostash/12162631665_4c60b037bd.jpg'
p143
sg23
S'vision:mountain=0653 vision:outdoor=0709 vision:sky=0645'
p144
sg25
S'http://farm6.staticflickr.com/5520/12162631665_4c60b037bd.jpg'
p145
sg15
S'5520'
p146
sg28
S'1390785912'
p147
sg30
S'2013-11-03 14:10:10'
p148
sg32
S'4c60b037bd'
p149
sg34
S'0'
p150
sg36
S'0'
p151
sg38
S'0'
p152
sg40
S'12162631665'
p153
sa(dp154
g9
S'Fungi 2013 WA - 214'
p155
sg21
S'../../content/flickr/lostash/12163045443_24be218a72.jpg'
p156
sg23
S'vision:mountain=0603 vision:outdoor=0883'
p157
sg25
S'http://farm3.staticflickr.com/2859/12163045443_24be218a72.jpg'
p158
sg15
S'2859'
p159
sg28
S'1390785903'
p160
sg30
S'2013-10-26 14:19:01'
p161
sg32
S'24be218a72'
p162
sg34
S'-2.218612'
p163
sg36
S'51.609361'
p164
sg38
S'0'
p165
sg40
S'12163045443'
p166
sa(dp167
g9
S'Hodges'
p168
sg21
S'../../content/flickr/lostash/12178256864_c14098dd94.jpg'
p169
sg23
S'autumn holiday beach boats cornwall surfing fistralbeach vision:mountain=0522 vision:sky=0875 vision:clouds=0771 vision:outdoor=0782'
p170
sg25
S'http://farm6.staticflickr.com/5521/12178256864_c14098dd94.jpg'
p171
sg15
S'5521'
p172
sg28
S'1390855575'
p173
sg30
S'2013-09-20 14:00:48'
p174
sg32
S'c14098dd94'
p175
sg34
S'-5.098356'
p176
sg36
S'50.423158'
p177
sg38
S'0'
p178
sg40
S'12178256864'
p179
sa(dp180
g9
S'Eden 56'
p181
sg21
S'../../content/flickr/lostash/12178089273_8b950c67ec.jpg'
p182
sg23
S'abstract architecture buildings blackwhite cornwall edenproject structure biodomes vision:sky=0704 vision:outdoor=0845 vision:plant=0804 vision:clouds=0619'
p183
sg25
S'http://farm4.staticflickr.com/3755/12178089273_8b950c67ec.jpg'
p184
sg15
S'3755'
p185
sg28
S'1390855575'
p186
sg30
S'2013-09-19 13:22:23'
p187
sg32
S'8b950c67ec'
p188
sg34
S'0'
p189
sg36
S'0'
p190
sg38
S'0'
p191
sg40
S'12178089273'
p192
sa(dp193
g9
S'Eden 36'
p194
sg21
S'../../content/flickr/lostash/12178281354_ed2f0e3626.jpg'
p195
sg23
S'abstract architecture buildings blackwhite cornwall edenproject structure biodomes vision:mountain=0626 vision:outdoor=0834'
p196
sg25
S'http://farm6.staticflickr.com/5486/12178281354_ed2f0e3626.jpg'
p197
sg15
S'5486'
p198
sg28
S'1390855574'
p199
sg30
S'2013-09-19 11:42:13'
p200
sg32
S'ed2f0e3626'
p201
sg34
S'0'
p202
sg36
S'0'
p203
sg38
S'0'
p204
sg40
S'12178281354'
p205
sa(dp206
g9
S'Eden 34'
p207
sg21
S'../../content/flickr/lostash/12178287834_49e73c071f.jpg'
p208
sg23
S'abstract architecture buildings blackwhite cornwall edenproject structure biodomes vision:mountain=0591 vision:outdoor=0756 vision:car=0522 vision:sky=061'
p209
sg25
S'http://farm3.staticflickr.com/2832/12178287834_49e73c071f.jpg'
p210
sg15
S'2832'
p211
sg28
S'1390855573'
p212
sg30
S'2013-09-19 11:37:47'
p213
sg32
S'49e73c071f'
p214
sg34
S'0'
p215
sg36
S'0'
p216
sg38
S'0'
p217
sg40
S'12178287834'
p218
sa(dp219
g9
S'Eden 24'
p220
sg21
S'../../content/flickr/lostash/12177893115_2a345aaa72.jpg'
p221
sg23
S'abstract architecture buildings blackwhite cornwall edenproject structure biodomes vision:outdoor=0572 vision:sky=0621'
p222
sg25
S'http://farm6.staticflickr.com/5523/12177893115_2a345aaa72.jpg'
p223
sg15
S'5523'
p224
sg28
S'1390855573'
p225
sg30
S'2013-09-19 11:21:01'
p226
sg32
S'2a345aaa72'
p227
sg34
S'0'
p228
sg36
S'0'
p229
sg38
S'0'
p230
sg40
S'12177893115'
p231
sa(dp232
g9
S'Eden 23'
p233
sg21
S'../../content/flickr/lostash/12177906855_08fff9da15.jpg'
p234
sg23
S'abstract architecture buildings blackwhite cornwall edenproject structure biodomes vision:outdoor=098'
p235
sg25
S'http://farm8.staticflickr.com/7416/12177906855_08fff9da15.jpg'
p236
sg15
S'7416'
p237
sg28
S'1390855572'
p238
sg30
S'2013-09-19 11:20:19'
p239
sg32
S'08fff9da15'
p240
sg34
S'0'
p241
sg36
S'0'
p242
sg38
S'0'
p243
sg40
S'12177906855'
p244
sa(dp245
g9
S'Eden 22'
p246
sg21
S'../../content/flickr/lostash/12178135253_187b95170c.jpg'
p247
sg23
S'abstract architecture buildings blackwhite cornwall edenproject structure biodomes vision:mountain=058 vision:car=0536'
p248
sg25
S'http://farm8.staticflickr.com/7401/12178135253_187b95170c.jpg'
p249
sg15
S'7401'
p250
sg28
S'1390855571'
p251
sg30
S'2013-09-19 11:18:42'
p252
sg32
S'187b95170c'
p253
sg34
S'0'
p254
sg36
S'0'
p255
sg38
S'0'
p256
sg40
S'12178135253'
p257
sasg32
S'b360319d43'
p258
sg40
S'72157640225754335'
p259
sa(dp260
g7
g8
sg9
S'Insects & Spiders'
p261
sg11
S'8'
p262
sg13
S'12177087933'
p263
sg15
S'7433'
p264
sg17
(lp265
(dp266
g9
S'Autumn 13 17'
p267
sg21
S'../../content/flickr/lostash/12177087933_84d5d4b462.jpg'
p268
sg23
S'vision:plant=0567'
p269
sg25
S'http://farm8.staticflickr.com/7433/12177087933_84d5d4b462.jpg'
p270
sg15
S'7433'
p271
sg28
S'1390851891'
p272
sg30
S'2013-10-05 14:23:09'
p273
sg32
S'84d5d4b462'
p274
sg34
S'0'
p275
sg36
S'0'
p276
sg38
S'1'
p277
sg40
S'12177087933'
p278
sa(dp279
g9
S'Autumn 13 15'
p280
sg21
S'../../content/flickr/lostash/12177102733_87fe72c073.jpg'
p281
sg23
S'vision:plant=0718 vision:outdoor=0526'
p282
sg25
S'http://farm4.staticflickr.com/3718/12177102733_87fe72c073.jpg'
p283
sg15
S'3718'
p284
sg28
S'1390851890'
p285
sg30
S'2013-10-05 13:55:38'
p286
sg32
S'87fe72c073'
p287
sg34
S'0'
p288
sg36
S'0'
p289
sg38
S'0'
p290
sg40
S'12177102733'
p291
sa(dp292
g9
S'Autumn 13 4'
p293
sg21
S'../../content/flickr/lostash/12177532106_ce7f24aa05.jpg'
p294
sg23
S'vision:outdoor=0721'
p295
sg25
S'http://farm8.staticflickr.com/7412/12177532106_ce7f24aa05.jpg'
p296
sg15
S'7412'
p297
sg28
S'1390851887'
p298
sg30
S'2013-10-05 13:47:27'
p299
sg32
S'ce7f24aa05'
p300
sg34
S'0'
p301
sg36
S'0'
p302
sg38
S'0'
p303
sg40
S'12177532106'
p304
sa(dp305
g9
S'Heligan 35'
p306
sg21
S'../../content/flickr/lostash/12189058156_a7cfcd4a87.jpg'
p307
sg23
S'life uk macro nature bees insects bugs bee creatures lostgardensofheligan vision:outdoor=0609 vision:plant=0883 vision:flower=0932'
p308
sg25
S'http://farm8.staticflickr.com/7312/12189058156_a7cfcd4a87.jpg'
p309
sg15
S'7312'
p310
sg28
S'1390921749'
p311
sg30
S'2013-09-18 12:39:31'
p312
sg32
S'a7cfcd4a87'
p313
sg34
S'-4.810792'
p314
sg36
S'50.284036'
p315
sg38
S'0'
p316
sg40
S'12189058156'
p317
sa(dp318
g9
S'Heligan 36'
p319
sg21
S'../../content/flickr/lostash/12188437985_40e7730886.jpg'
p320
sg23
S'life uk macro nature bees insects bugs bee creatures lostgardensofheligan vision:plant=0509'
p321
sg25
S'http://farm3.staticflickr.com/2872/12188437985_40e7730886.jpg'
p322
sg15
S'2872'
p323
sg28
S'1390921750'
p324
sg30
S'2013-09-18 12:40:47'
p325
sg32
S'40e7730886'
p326
sg34
S'-4.810395'
p327
sg36
S'50.284766'
p328
sg38
S'0'
p329
sg40
S'12188437985'
p330
sa(dp331
g9
S'Heligan 45'
p332
sg21
S'../../content/flickr/lostash/12188433335_1a862f0450.jpg'
p333
sg23
S'life uk macro nature bees insects bugs bee creatures lostgardensofheligan vision:flower=0558 vision:outdoor=0719'
p334
sg25
S'http://farm6.staticflickr.com/5479/12188433335_1a862f0450.jpg'
p335
sg15
S'5479'
p336
sg28
S'1390921751'
p337
sg30
S'2013-09-18 12:46:50'
p338
sg32
S'1a862f0450'
p339
sg34
S'-4.81'
p340
sg36
S'50.284663'
p341
sg38
S'0'
p342
sg40
S'12188433335'
p343
sa(dp344
g9
S'Heligan 47'
p345
sg21
S'../../content/flickr/lostash/12188427565_f73d55e9ca.jpg'
p346
sg23
S'life uk macro nature insects bugs wasps creatures lostgardensofheligan'
p347
sg25
S'http://farm3.staticflickr.com/2807/12188427565_f73d55e9ca.jpg'
p348
sg15
S'2807'
p349
sg28
S'1390921752'
p350
sg30
S'2013-09-18 12:48:00'
p351
sg32
S'f73d55e9ca'
p352
sg34
S'-4.809862'
p353
sg36
S'50.284519'
p354
sg38
S'0'
p355
sg40
S'12188427565'
p356
sa(dp357
g9
S'Heligan 60'
p358
sg21
S'../../content/flickr/lostash/12188847064_14f4cabd0c.jpg'
p359
sg23
S'life uk macro nature insects bugs creatures weevil lostgardensofheligan vision:outdoor=0655'
p360
sg25
S'http://farm3.staticflickr.com/2833/12188847064_14f4cabd0c.jpg'
p361
sg15
S'2833'
p362
sg28
S'1390921752'
p363
sg30
S'2013-09-18 13:31:06'
p364
sg32
S'14f4cabd0c'
p365
sg34
S'-4.808198'
p366
sg36
S'50.282647'
p367
sg38
S'0'
p368
sg40
S'12188847064'
p369
sa(dp370
g9
S'Heligan Stiltbug'
p371
sg21
S'../../content/flickr/lostash/12188665633_83ce7a52e9.jpg'
p372
sg23
S'life uk macro nature insects bugs creatures lostgardensofheligan stiltbug vision:outdoor=0844'
p373
sg25
S'http://farm3.staticflickr.com/2842/12188665633_83ce7a52e9.jpg'
p374
sg15
S'2842'
p375
sg28
S'1390921753'
p376
sg30
S'2013-09-18 13:58:21'
p377
sg32
S'83ce7a52e9'
p378
sg34
S'-4.806712'
p379
sg36
S'50.281461'
p380
sg38
S'0'
p381
sg40
S'12188665633'
p382
sa(dp383
g9
S'Worker 28'
p384
sg21
S'../../content/flickr/lostash/12210993603_beefd48caf.jpg'
p385
sg23
S'macro nature bees insects bugs bee pollen'
p386
sg25
S'http://farm3.staticflickr.com/2823/12210993603_beefd48caf.jpg'
p387
sg15
S'2823'
p388
sg28
S'1391029059'
p389
sg30
S'2013-08-01 09:33:02'
p390
sg32
S'beefd48caf'
p391
sg34
S'0'
p392
sg36
S'0'
p393
sg38
S'0'
p394
sg40
S'12210993603'
p395
sasg32
S'84d5d4b462'
p396
sg40
S'72157640227814673'
p397
sa(dp398
g7
g8
sg9
S'Nature'
p399
sg11
S'4'
p400
sg13
S'12175660563'
p401
sg15
S'3822'
p402
sg17
(lp403
(dp404
g9
S'WA 8'
p405
sg21
S'../../content/flickr/lostash/12175660563_3da20fc84d.jpg'
p406
sg23
S'autumn trees nature colours deciduous maples westonbirtarboretum vision:plant=0944 vision:outdoor=0742 vision:flower=0654'
p407
sg25
S'http://farm4.staticflickr.com/3822/12175660563_3da20fc84d.jpg'
p408
sg15
S'3822'
p409
sg28
S'1390845871'
p410
sg30
S'2013-10-26 13:24:35'
p411
sg32
S'3da20fc84d'
p412
sg34
S'-2.214092'
p413
sg36
S'51.611247'
p414
sg38
S'1'
p415
sg40
S'12175660563'
p416
sa(dp417
g9
S'Fungi 2013 - 90'
p418
sg21
S'../../content/flickr/lostash/12176573576_e6527caf41.jpg'
p419
sg23
S'macro nature mushrooms fungi fungus mycology toadstools vision:sky=052'
p420
sg25
S'http://farm8.staticflickr.com/7326/12176573576_e6527caf41.jpg'
p421
sg15
S'7326'
p422
sg28
S'1390848892'
p423
sg30
S'2013-10-17 09:49:32'
p424
sg32
S'e6527caf41'
p425
sg34
S'0'
p426
sg36
S'0'
p427
sg38
S'0'
p428
sg40
S'12176573576'
p429
sa(dp430
g9
S'Fungi 2013 - 118'
p431
sg21
S'../../content/flickr/lostash/12175878683_b2d181b56c.jpg'
p432
sg23
S'macro nature mushrooms fungi fungus mycology toadstools vision:mountain=0503 vision:outdoor=0959'
p433
sg25
S'http://farm3.staticflickr.com/2865/12175878683_b2d181b56c.jpg'
p434
sg15
S'2865'
p435
sg28
S'1390848910'
p436
sg30
S'2013-10-18 16:41:17'
p437
sg32
S'b2d181b56c'
p438
sg34
S'0'
p439
sg36
S'0'
p440
sg38
S'0'
p441
sg40
S'12175878683'
p442
sa(dp443
g9
S'LBG A122'
p444
sg21
S'../../content/flickr/lostash/12176885233_67ee6f0418.jpg'
p445
sg23
S'autumn macro nature oak nuts seeds acorn vision:outdoor=0869 vision:plant=0598'
p446
sg25
S'http://farm8.staticflickr.com/7413/12176885233_67ee6f0418.jpg'
p447
sg15
S'7413'
p448
sg28
S'1390851900'
p449
sg30
S'2013-10-06 11:39:52'
p450
sg32
S'67ee6f0418'
p451
sg34
S'-1.092642'
p452
sg36
S'52.607513'
p453
sg38
S'0'
p454
sg40
S'12176885233'
p455
sa(dp456
g9
S'LBG A116'
p457
sg21
S'../../content/flickr/lostash/12177315726_2855678f38.jpg'
p458
sg23
S'vision:outdoor=0701 vision:flower=0749 vision:plant=0511'
p459
sg25
S'http://farm8.staticflickr.com/7320/12177315726_2855678f38.jpg'
p460
sg15
S'7320'
p461
sg28
S'1390851898'
p462
sg30
S'2013-10-06 11:29:47'
p463
sg32
S'2855678f38'
p464
sg34
S'-1.092912'
p465
sg36
S'52.606608'
p466
sg38
S'0'
p467
sg40
S'12177315726'
p468
sa(dp469
g9
S'LBG A104'
p470
sg21
S'../../content/flickr/lostash/12176742355_b360319d43.jpg'
p471
sg23
S'life autumn plants macro nature colours vision:dark=0749 vision:outdoor=0882'
p472
sg25
S'http://farm8.staticflickr.com/7325/12176742355_b360319d43.jpg'
p473
sg15
S'7325'
p474
sg28
S'1390851896'
p475
sg30
S'2013-10-06 11:13:35'
p476
sg32
S'b360319d43'
p477
sg34
S'-1.091373'
p478
sg36
S'52.604566'
p479
sg38
S'0'
p480
sg40
S'12176742355'
p481
sa(dp482
g9
S'LBG A99'
p483
sg21
S'../../content/flickr/lostash/12177181134_7d2d686dfc.jpg'
p484
sg23
S'life autumn plants macro nature colours vision:plant=0936 vision:flower=0941'
p485
sg25
S'http://farm6.staticflickr.com/5549/12177181134_7d2d686dfc.jpg'
p486
sg15
S'5549'
p487
sg28
S'1390851895'
p488
sg30
S'2013-10-06 11:12:11'
p489
sg32
S'7d2d686dfc'
p490
sg34
S'-1.091373'
p491
sg36
S'52.604275'
p492
sg38
S'0'
p493
sg40
S'12177181134'
p494
sa(dp495
g9
S'LBG A93'
p496
sg21
S'../../content/flickr/lostash/12177401846_dc5ea514f6.jpg'
p497
sg23
S'life autumn plants macro nature colours vision:outdoor=0831 vision:plant=0899'
p498
sg25
S'http://farm8.staticflickr.com/7395/12177401846_dc5ea514f6.jpg'
p499
sg15
S'7395'
p500
sg28
S'1390851894'
p501
sg30
S'2013-10-06 11:02:00'
p502
sg32
S'dc5ea514f6'
p503
sg34
S'-1.091992'
p504
sg36
S'52.607091'
p505
sg38
S'0'
p506
sg40
S'12177401846'
p507
sa(dp508
g9
S'LBG A90'
p509
sg21
S'../../content/flickr/lostash/12177416986_0a487aaf12.jpg'
p510
sg23
S'life autumn plants macro nature colours vision:outdoor=0678'
p511
sg25
S'http://farm8.staticflickr.com/7386/12177416986_0a487aaf12.jpg'
p512
sg15
S'7386'
p513
sg28
S'1390851893'
p514
sg30
S'2013-10-06 11:01:09'
p515
sg32
S'0a487aaf12'
p516
sg34
S'-1.092062'
p517
sg36
S'52.606938'
p518
sg38
S'0'
p519
sg40
S'12177416986'
p520
sa(dp521
g9
S'LBG A46'
p522
sg21
S'../../content/flickr/lostash/12177229654_3251377388.jpg'
p523
sg23
S'life autumn plants macro nature colours vision:mountain=0861 vision:outdoor=079 vision:plant=0827'
p524
sg25
S'http://farm4.staticflickr.com/3716/12177229654_3251377388.jpg'
p525
sg15
S'3716'
p526
sg28
S'1390851893'
p527
sg30
S'2013-10-06 10:08:01'
p528
sg32
S'3251377388'
p529
sg34
S'-1.091223'
p530
sg36
S'52.608733'
p531
sg38
S'0'
p532
sg40
S'12177229654'
p533
sasg32
S'3da20fc84d'
p534
sg40
S'72157640226422243'
p535
sa(dp536
g7
g8
sg9
S'Kaleidoscopes'
p537
sg11
S'4'
p538
sg13
S'8813890023'
p539
sg15
S'3755'
p540
sg17
(lp541
(dp542
g9
S'Goodbye Flickr!!'
p543
sg21
S'../../content/flickr/lostash/8813890023_026cfc4c17.jpg'
p544
sg23
g8
sg25
S'http://farm4.staticflickr.com/3755/8813890023_026cfc4c17.jpg'
p545
sg15
S'3755'
p546
sg28
S'1369481368'
p547
sg30
S'2013-05-25 12:29:19'
p548
sg32
S'026cfc4c17'
p549
sg34
S'0'
p550
sg36
S'0'
p551
sg38
S'1'
p552
sg40
S'8813890023'
p553
sasg32
S'026cfc4c17'
p554
sg40
S'72157640226318334'
p555
sa(dp556
g7
g8
sg9
S'Fungi'
p557
sg11
S'4'
p558
sg13
S'12176021284'
p559
sg15
S'3818'
p560
sg17
(lp561
(dp562
g9
S'Fungi 2013 - 121'
p563
sg21
S'../../content/flickr/lostash/12176021284_72c94d36fd.jpg'
p564
sg23
S'macro nature mushrooms fungi fungus mycology toadstools vision:mountain=0524 vision:outdoor=0892'
p565
sg25
S'http://farm4.staticflickr.com/3818/12176021284_72c94d36fd.jpg'
p566
sg15
S'3818'
p567
sg28
S'1390848912'
p568
sg30
S'2013-10-18 16:42:34'
p569
sg32
S'72c94d36fd'
p570
sg34
S'-2.892553'
p571
sg36
S'53.192936'
p572
sg38
S'1'
p573
sg40
S'12176021284'
p574
sa(dp575
g9
S'Fungi 2013 - 120'
p576
sg21
S'../../content/flickr/lostash/12176241106_2ef93d2df2.jpg'
p577
sg23
S'macro nature mushrooms fungi fungus mycology toadstools vision:outdoor=09'
p578
sg25
S'http://farm8.staticflickr.com/7317/12176241106_2ef93d2df2.jpg'
p579
sg15
S'7317'
p580
sg28
S'1390848911'
p581
sg30
S'2013-10-18 16:41:42'
p582
sg32
S'2ef93d2df2'
p583
sg34
S'-2.892403'
p584
sg36
S'53.192813'
p585
sg38
S'0'
p586
sg40
S'12176241106'
p587
sa(dp588
g9
S'Fungi 2013 - 119'
p589
sg21
S'../../content/flickr/lostash/12175639555_d66b9c81f2.jpg'
p590
sg23
S'macro nature mushrooms fungi fungus mycology toadstools vision:food=07 vision:outdoor=0602'
p591
sg25
S'http://farm8.staticflickr.com/7381/12175639555_d66b9c81f2.jpg'
p592
sg15
S'7381'
p593
sg28
S'1390848911'
p594
sg30
S'2013-10-18 16:41:28'
p595
sg32
S'd66b9c81f2'
p596
sg34
S'-2.892473'
p597
sg36
S'53.192797'
p598
sg38
S'0'
p599
sg40
S'12175639555'
p600
sa(dp601
g9
S'Fungi 2013 - 111'
p602
sg21
S'../../content/flickr/lostash/12176349206_a60e4ca208.jpg'
p603
sg23
S'macro nature mushrooms fungi fungus mycology toadstools vision:plant=0786 vision:outdoor=0866'
p604
sg25
S'http://farm6.staticflickr.com/5522/12176349206_a60e4ca208.jpg'
p605
sg15
S'5522'
p606
sg28
S'1390848904'
p607
sg30
S'2013-10-11 12:15:35'
p608
sg32
S'a60e4ca208'
p609
sg34
S'-2.387698'
p610
sg36
S'53.327958'
p611
sg38
S'0'
p612
sg40
S'12176349206'
p613
sa(dp614
g9
S'Fungi 2013 - 118'
p615
sg21
S'../../content/flickr/lostash/12175878683_b2d181b56c.jpg'
p616
sg23
S'macro nature mushrooms fungi fungus mycology toadstools vision:mountain=0503 vision:outdoor=0959'
p617
sg25
S'http://farm3.staticflickr.com/2865/12175878683_b2d181b56c.jpg'
p618
sg15
S'2865'
p619
sg28
S'1390848910'
p620
sg30
S'2013-10-18 16:41:17'
p621
sg32
S'b2d181b56c'
p622
sg34
S'0'
p623
sg36
S'0'
p624
sg38
S'0'
p625
sg40
S'12175878683'
p626
sa(dp627
g9
S'Fungi 2013 - 117'
p628
sg21
S'../../content/flickr/lostash/12175884383_7fedd573be.jpg'
p629
sg23
S'macro nature mushrooms fungi fungus mycology toadstools vision:mountain=0634 vision:sky=0789 vision:outdoor=0797'
p630
sg25
S'http://farm8.staticflickr.com/7325/12175884383_7fedd573be.jpg'
p631
sg15
S'7325'
p632
sg28
S'1390848909'
p633
sg30
S'2013-10-20 11:37:08'
p634
sg32
S'7fedd573be'
p635
sg34
S'-1.18385'
p636
sg36
S'52.571252'
p637
sg38
S'0'
p638
sg40
S'12175884383'
p639
sa(dp640
g9
S'Fungi 2013 - 116'
p641
sg21
S'../../content/flickr/lostash/12176284086_888425299d.jpg'
p642
sg23
S'macro nature mushrooms fungi fungus mycology toadstools vision:outdoor=0854 vision:plant=0501'
p643
sg25
S'http://farm4.staticflickr.com/3807/12176284086_888425299d.jpg'
p644
sg15
S'3807'
p645
sg28
S'1390848908'
p646
sg30
S'2013-10-17 10:56:42'
p647
sg32
S'888425299d'
p648
sg34
S'0'
p649
sg36
S'0'
p650
sg38
S'0'
p651
sg40
S'12176284086'
p652
sa(dp653
g9
S'Fungi 2013 - 115'
p654
sg21
S'../../content/flickr/lostash/12175683275_d415be32b9.jpg'
p655
sg23
S'macro nature mushrooms fungi fungus mycology toadstools vision:outdoor=0831 vision:plant=0722'
p656
sg25
S'http://farm4.staticflickr.com/3726/12175683275_d415be32b9.jpg'
p657
sg15
S'3726'
p658
sg28
S'1390848908'
p659
sg30
S'2013-10-17 10:09:39'
p660
sg32
S'd415be32b9'
p661
sg34
S'0'
p662
sg36
S'0'
p663
sg38
S'0'
p664
sg40
S'12175683275'
p665
sa(dp666
g9
S'Fungi 2013 - 114'
p667
sg21
S'../../content/flickr/lostash/12176104284_005d27d0e9.jpg'
p668
sg23
S'macro nature mushrooms fungi fungus mycology toadstools vision:plant=0737 vision:outdoor=0899'
p669
sg25
S'http://farm3.staticflickr.com/2858/12176104284_005d27d0e9.jpg'
p670
sg15
S'2858'
p671
sg28
S'1390848907'
p672
sg30
S'2013-10-17 10:09:24'
p673
sg32
S'005d27d0e9'
p674
sg34
S'0'
p675
sg36
S'0'
p676
sg38
S'0'
p677
sg40
S'12176104284'
p678
sa(dp679
g9
S'Fungi 2013 - 113'
p680
sg21
S'../../content/flickr/lostash/12176118384_c3a5396ee7.jpg'
p681
sg23
S'macro nature mushrooms fungi fungus mycology toadstools vision:food=0787 vision:car=0859 vision:plant=0935 vision:soccer=0528'
p682
sg25
S'http://farm4.staticflickr.com/3822/12176118384_c3a5396ee7.jpg'
p683
sg15
S'3822'
p684
sg28
S'1390848906'
p685
sg30
S'2013-10-20 11:59:43'
p686
sg32
S'c3a5396ee7'
p687
sg34
S'-1.179723'
p688
sg36
S'52.576602'
p689
sg38
S'0'
p690
sg40
S'12176118384'
p691
sasg32
S'72c94d36fd'
p692
sg40
S'72157640224285825'
p693
sasS'api_secret'
p694
S'45f1be4bd59f9155'
p695
sS'requested_dt'
p696
cdatetime
datetime
p697
(S'\x07\xde\x01\x1f\x13\x18,\x06ju'
p698
tp699
Rp700
sS'created_dt'
p701
(lp702
g697
(S'\x07\xdd\t\x10\x0b47\x00\x00\x00'
p703
tp704
Rp705
ag697
(S'\x07\xdd\n\x14\x0b;+\x00\x00\x00'
p706
tp707
Rp708
asS'content_set'
p709
I01
sS'api_key'
p710
S'71ae5bd2b331d44649161f6d3ff7e6b6'
p711
sS'content_dir'
p712
S'../../content/flickr/lostash'
p713
s.